; Function Attrs: mustprogress uwtable
define hidden void @_ZN4cvc58internal6theory25getUnsatCoreFromSubsolverERNS0_12SolverEngineERSt6vectorINS0_12NodeTemplateILb1EEESaIS6_EE(ptr noundef nonnull align 8 dereferenceable(296) %0, ptr noundef nonnull align 8 dereferenceable(24) %1) local_unnamed_addr #3 personality ptr @__gxx_personality_v0 {
  %3 = alloca %"class.std::unordered_set", align 8
  call void @llvm.lifetime.start.p0(i64 56, ptr nonnull %3) #20
  %4 = getelementptr inbounds nuw i8, ptr %3, i64 48
  store ptr %4, ptr %3, align 8, !tbaa !62
  %5 = getelementptr inbounds nuw i8, ptr %3, i64 8
  store i64 1, ptr %5, align 8, !tbaa !61
  %6 = getelementptr inbounds nuw i8, ptr %3, i64 16
  %7 = getelementptr inbounds nuw i8, ptr %3, i64 32
  call void @llvm.memset.p0.i64(ptr noundef nonnull align 8 dereferenceable(16) %6, i8 0, i64 16, i1 false)
  store float 1.000000e+00, ptr %7, align 8, !tbaa !83
  %8 = getelementptr inbounds nuw i8, ptr %3, i64 40
  call void @llvm.memset.p0.i64(ptr noundef nonnull align 8 dereferenceable(16) %8, i8 0, i64 16, i1 false)
  %9 = invoke noundef zeroext i1 @_ZN4cvc58internal6theory25getUnsatCoreFromSubsolverERNS0_12SolverEngineERKSt13unordered_setINS0_12NodeTemplateILb1EEESt4hashIS6_ESt8equal_toIS6_ESaIS6_EERSt6vectorIS6_SB_E(ptr noundef nonnull align 8 dereferenceable(296) %0, ptr noundef nonnull align 8 dereferenceable(56) %3, ptr noundef nonnull align 8 dereferenceable(24) %1)
          to label %10 unwind label %35

10:                                               ; preds = %2
  %11 = load ptr, ptr %6, align 8, !tbaa !84
  %.not5.i.i.i = icmp eq ptr %11, null
  br i1 %.not5.i.i.i, label %_ZNSt10_HashtableIN4cvc58internal12NodeTemplateILb1EEES3_SaIS3_ENSt8__detail9_IdentityESt8equal_toIS3_ESt4hashIS3_ENS5_18_Mod_range_hashingENS5_20_Default_ranged_hashENS5_20_Prime_rehash_policyENS5_17_Hashtable_traitsILb1ELb1ELb1EEEE5clearEv.exit.i, label %.lr.ph.i.i.i

.lr.ph.i.i.i:                                     ; preds = %10, %_ZNSt8__detail16_Hashtable_allocISaINS_10_Hash_nodeIN4cvc58internal12NodeTemplateILb1EEELb1EEEEE18_M_deallocate_nodeEPS6_.exit.i.i.i
  %.06.i.i.i = phi ptr [ %12, %_ZNSt8__detail16_Hashtable_allocISaINS_10_Hash_nodeIN4cvc58internal12NodeTemplateILb1EEELb1EEEEE18_M_deallocate_nodeEPS6_.exit.i.i.i ], [ %11, %10 ]
  %12 = load ptr, ptr %.06.i.i.i, align 8, !tbaa !59
  %13 = getelementptr inbounds nuw i8, ptr %.06.i.i.i, i64 8
  %14 = load ptr, ptr %13, align 8, !tbaa !15
  %15 = load i64, ptr %14, align 8
  %16 = and i64 %15, 1152920405095219200
  %.not.i.i.i.i.i.i.i.i = icmp eq i64 %16, 1152920405095219200
  br i1 %.not.i.i.i.i.i.i.i.i, label %_ZNSt8__detail16_Hashtable_allocISaINS_10_Hash_nodeIN4cvc58internal12NodeTemplateILb1EEELb1EEEEE18_M_deallocate_nodeEPS6_.exit.i.i.i, label %17, !prof !14

17:                                               ; preds = %.lr.ph.i.i.i
  %18 = add i64 %15, 1152920405095219200
  %19 = and i64 %18, 1152920405095219200
  %20 = and i64 %15, -1152920405095219201
  %21 = or disjoint i64 %19, %20
  store i64 %21, ptr %14, align 8
  %22 = icmp eq i64 %19, 0
  br i1 %22, label %23, label %_ZNSt8__detail16_Hashtable_allocISaINS_10_Hash_nodeIN4cvc58internal12NodeTemplateILb1EEELb1EEEEE18_M_deallocate_nodeEPS6_.exit.i.i.i, !prof !14

23:                                               ; preds = %17
  invoke void @_ZN4cvc58internal4expr9NodeValue15markForDeletionEv(ptr noundef nonnull align 8 dereferenceable(24) %14)
          to label %_ZNSt8__detail16_Hashtable_allocISaINS_10_Hash_nodeIN4cvc58internal12NodeTemplateILb1EEELb1EEEEE18_M_deallocate_nodeEPS6_.exit.i.i.i unwind label %24

24:                                               ; preds = %23
  %25 = landingpad { ptr, i32 }
          catch ptr null
  %26 = extractvalue { ptr, i32 } %25, 0
  call void @__clang_call_terminate(ptr %26) #21
  unreachable

_ZNSt8__detail16_Hashtable_allocISaINS_10_Hash_nodeIN4cvc58internal12NodeTemplateILb1EEELb1EEEEE18_M_deallocate_nodeEPS6_.exit.i.i.i: ; preds = %23, %17, %.lr.ph.i.i.i
  call void @_ZdlPvm(ptr noundef nonnull %.06.i.i.i, i64 noundef 24) #22
  %.not.i.i.i = icmp eq ptr %12, null
  br i1 %.not.i.i.i, label %_ZNSt10_HashtableIN4cvc58internal12NodeTemplateILb1EEES3_SaIS3_ENSt8__detail9_IdentityESt8equal_toIS3_ESt4hashIS3_ENS5_18_Mod_range_hashingENS5_20_Default_ranged_hashENS5_20_Prime_rehash_policyENS5_17_Hashtable_traitsILb1ELb1ELb1EEEE5clearEv.exit.i, label %.lr.ph.i.i.i, !llvm.loop !85

_ZNSt10_HashtableIN4cvc58internal12NodeTemplateILb1EEES3_SaIS3_ENSt8__detail9_IdentityESt8equal_toIS3_ESt4hashIS3_ENS5_18_Mod_range_hashingENS5_20_Default_ranged_hashENS5_20_Prime_rehash_policyENS5_17_Hashtable_traitsILb1ELb1ELb1EEEE5clearEv.exit.i: ; preds = %_ZNSt8__detail16_Hashtable_allocISaINS_10_Hash_nodeIN4cvc58internal12NodeTemplateILb1EEELb1EEEEE18_M_deallocate_nodeEPS6_.exit.i.i.i, %10
  %27 = load ptr, ptr %3, align 8, !tbaa !62
  %28 = load i64, ptr %5, align 8, !tbaa !61
  %29 = shl i64 %28, 3
  call void @llvm.memset.p0.i64(ptr align 8 %27, i8 0, i64 %29, i1 false)
  call void @llvm.memset.p0.i64(ptr noundef nonnull align 8 dereferenceable(16) %6, i8 0, i64 16, i1 false)
  %30 = load ptr, ptr %3, align 8, !tbaa !62
  %31 = icmp eq ptr %30, %4
  br i1 %31, label %_ZNSt10_HashtableIN4cvc58internal12NodeTemplateILb1EEES3_SaIS3_ENSt8__detail9_IdentityESt8equal_toIS3_ESt4hashIS3_ENS5_18_Mod_range_hashingENS5_20_Default_ranged_hashENS5_20_Prime_rehash_policyENS5_17_Hashtable_traitsILb1ELb1ELb1EEEED2Ev.exit, label %32

32:                                               ; preds = %_ZNSt10_HashtableIN4cvc58internal12NodeTemplateILb1EEES3_SaIS3_ENSt8__detail9_IdentityESt8equal_toIS3_ESt4hashIS3_ENS5_18_Mod_range_hashingENS5_20_Default_ranged_hashENS5_20_Prime_rehash_policyENS5_17_Hashtable_traitsILb1ELb1ELb1EEEE5clearEv.exit.i
  %33 = load i64, ptr %5, align 8, !tbaa !61
  %34 = shl i64 %33, 3
  call void @_ZdlPvm(ptr noundef %30, i64 noundef %34) #22
  br label %_ZNSt10_HashtableIN4cvc58internal12NodeTemplateILb1EEES3_SaIS3_ENSt8__detail9_IdentityESt8equal_toIS3_ESt4hashIS3_ENS5_18_Mod_range_hashingENS5_20_Default_ranged_hashENS5_20_Prime_rehash_policyENS5_17_Hashtable_traitsILb1ELb1ELb1EEEED2Ev.exit

_ZNSt10_HashtableIN4cvc58internal12NodeTemplateILb1EEES3_SaIS3_ENSt8__detail9_IdentityESt8equal_toIS3_ESt4hashIS3_ENS5_18_Mod_range_hashingENS5_20_Default_ranged_hashENS5_20_Prime_rehash_policyENS5_17_Hashtable_traitsILb1ELb1ELb1EEEED2Ev.exit: ; preds = %_ZNSt10_HashtableIN4cvc58internal12NodeTemplateILb1EEES3_SaIS3_ENSt8__detail9_IdentityESt8equal_toIS3_ESt4hashIS3_ENS5_18_Mod_range_hashingENS5_20_Default_ranged_hashENS5_20_Prime_rehash_policyENS5_17_Hashtable_traitsILb1ELb1ELb1EEEE5clearEv.exit.i, %32
  call void @llvm.lifetime.end.p0(i64 56, ptr nonnull %3) #20
  ret void

35:                                               ; preds = %2
  %36 = landingpad { ptr, i32 }
          cleanup
  call void @_ZNSt10_HashtableIN4cvc58internal12NodeTemplateILb1EEES3_SaIS3_ENSt8__detail9_IdentityESt8equal_toIS3_ESt4hashIS3_ENS5_18_Mod_range_hashingENS5_20_Default_ranged_hashENS5_20_Prime_rehash_policyENS5_17_Hashtable_traitsILb1ELb1ELb1EEEED2Ev(ptr noundef nonnull align 8 dereferenceable(56) %3) #20
  call void @llvm.lifetime.end.p0(i64 56, ptr nonnull %3) #20
  resume { ptr, i32 } %36
}